target datalayout = "e-m:e-p270:32:32-p271:32:32-p272:64:64-i64:64-i128:128-f80:128-n8:16:32:64-S128"
target triple = "x86_64-pc-linux-gnu"

%"class.cvc5::internal::Integer" = type { %class.__gmp_expr }
%class.__gmp_expr = type { [1 x %struct.__mpz_struct] }
%struct.__mpz_struct = type { i32, i32, ptr }

; Function Attrs: mustprogress nounwind uwtable
define linkonce_odr hidden noundef zeroext i1 @_ZN17__gmp_binary_less4evalElPK12__mpz_struct(i64 noundef %0, ptr noundef %1) #3 comdat align 2 {
  %3 = alloca i64, align 8
  %4 = alloca ptr, align 8
  store i64 %0, ptr %3, align 8, !tbaa !36
  store ptr %1, ptr %4, align 8, !tbaa !30
  %5 = load i64, ptr %3, align 8, !tbaa !36
  %6 = icmp sge i64 %5, 0
  %7 = call i1 @llvm.is.constant.i1(i1 %6)
  br i1 %7, label %8, label %37

8:                                                ; preds = %2
  %9 = load i64, ptr %3, align 8, !tbaa !36
  %10 = icmp sge i64 %9, 0
  br i1 %10, label %11, label %37

11:                                               ; preds = %8
  %12 = load i64, ptr %3, align 8, !tbaa !36
  %13 = call i1 @llvm.is.constant.i64(i64 %12)
  br i1 %13, label %14, label %31

14:                                               ; preds = %11
  %15 = load i64, ptr %3, align 8, !tbaa !36
  %16 = icmp eq i64 %15, 0
  br i1 %16, label %17, label %31

17:                                               ; preds = %14
  %18 = load ptr, ptr %4, align 8, !tbaa !30
  %19 = getelementptr inbounds nuw %struct.__mpz_struct, ptr %18, i32 0, i32 1
  %20 = load i32, ptr %19, align 4, !tbaa !35
  %21 = icmp slt i32 %20, 0
  br i1 %21, label %22, label %23

22:                                               ; preds = %17
  br label %29

23:                                               ; preds = %17
  %24 = load ptr, ptr %4, align 8, !tbaa !30
  %25 = getelementptr inbounds nuw %struct.__mpz_struct, ptr %24, i32 0, i32 1
  %26 = load i32, ptr %25, align 4, !tbaa !35
  %27 = icmp sgt i32 %26, 0
  %28 = zext i1 %27 to i32
  br label %29

29:                                               ; preds = %23, %22
  %30 = phi i32 [ -1, %22 ], [ %28, %23 ]
  br label %35

31:                                               ; preds = %14, %11
  %32 = load ptr, ptr %4, align 8, !tbaa !30
  %33 = load i64, ptr %3, align 8, !tbaa !36
  %34 = call i32 @__gmpz_cmp_ui(ptr noundef %32, i64 noundef %33) #19
  br label %35

35:                                               ; preds = %31, %29
  %36 = phi i32 [ %30, %29 ], [ %34, %31 ]
  br label %41

37:                                               ; preds = %8, %2
  %38 = load ptr, ptr %4, align 8, !tbaa !30
  %39 = load i64, ptr %3, align 8, !tbaa !36
  %40 = call i32 @__gmpz_cmp_si(ptr noundef %38, i64 noundef %39) #19
  br label %41

41:                                               ; preds = %37, %35
  %42 = phi i32 [ %36, %35 ], [ %40, %37 ]
  %43 = icmp sgt i32 %42, 0
  ret i1 %43
}

; Function Attrs: inlinehint mustprogress uwtable
define linkonce_odr hidden noundef zeroext i1 @_ZN20__gmp_binary_greater4evalIPK12__mpz_structlEEbT_T0_(ptr noundef %0, i64 noundef %1) #1 comdat align 2 {
  %3 = alloca ptr, align 8
  %4 = alloca i64, align 8
  store ptr %0, ptr %3, align 8, !tbaa !30
  store i64 %1, ptr %4, align 8, !tbaa !36
  %5 = load i64, ptr %4, align 8, !tbaa !36
  %6 = load ptr, ptr %3, align 8, !tbaa !30
  %7 = call noundef zeroext i1 @_ZN17__gmp_binary_less4evalElPK12__mpz_struct(i64 noundef %5, ptr noundef %6)
  ret i1 %7
}

; Function Attrs: mustprogress nounwind uwtable
define linkonce_odr hidden noundef ptr @_ZNK10__gmp_exprIA1_12__mpz_structS1_E8__get_mpEv(ptr noundef nonnull align 8 dereferenceable(16) %0) #3 comdat align 2 {
  %2 = alloca ptr, align 8
  store ptr %0, ptr %2, align 8, !tbaa !12
  %3 = load ptr, ptr %2, align 8
  %4 = getelementptr inbounds nuw %class.__gmp_expr, ptr %3, i32 0, i32 0
  %5 = getelementptr inbounds [1 x %struct.__mpz_struct], ptr %4, i64 0, i64 0
  ret ptr %5
}

; Function Attrs: inlinehint mustprogress nounwind willreturn memory(read) uwtable
define available_externally i64 @__gmpz_popcount(ptr noundef %0) #6 {
  %2 = alloca ptr, align 8
  %3 = alloca i64, align 8
  %4 = alloca i64, align 8
  store ptr %0, ptr %2, align 8, !tbaa !30
  call void @llvm.lifetime.start.p0(i64 8, ptr %3) #16
  call void @llvm.lifetime.start.p0(i64 8, ptr %4) #16
  %5 = load ptr, ptr %2, align 8, !tbaa !30
  %6 = getelementptr inbounds nuw %struct.__mpz_struct, ptr %5, i32 0, i32 1
  %7 = load i32, ptr %6, align 4, !tbaa !35
  %8 = sext i32 %7 to i64
  store i64 %8, ptr %3, align 8, !tbaa !36
  %9 = load i64, ptr %3, align 8, !tbaa !36
  %10 = icmp slt i64 %9, 0
  %11 = select i1 %10, i64 -1, i64 0
  store i64 %11, ptr %4, align 8, !tbaa !36
  %12 = load i64, ptr %3, align 8, !tbaa !36
  %13 = icmp sgt i64 %12, 0
  %14 = zext i1 %13 to i32
  %15 = icmp ne i32 %14, 0
  %16 = zext i1 %15 to i64
  %17 = call i64 @llvm.expect.i64(i64 %16, i64 1)
  %18 = icmp ne i64 %17, 0
  br i1 %18, label %19, label %25

19:                                               ; preds = %1
  %20 = load ptr, ptr %2, align 8, !tbaa !30
  %21 = getelementptr inbounds nuw %struct.__mpz_struct, ptr %20, i32 0, i32 2
  %22 = load ptr, ptr %21, align 8, !tbaa !31
  %23 = load i64, ptr %3, align 8, !tbaa !36
  %24 = call i64 @__gmpn_popcount(ptr noundef %22, i64 noundef %23) #19
  store i64 %24, ptr %4, align 8, !tbaa !36
  br label %25

25:                                               ; preds = %19, %1
  %26 = load i64, ptr %4, align 8, !tbaa !36
  call void @llvm.lifetime.end.p0(i64 8, ptr %4) #16
  call void @llvm.lifetime.end.p0(i64 8, ptr %3) #16
  ret i64 %26
}

; Function Attrs: mustprogress nounwind uwtable
define linkonce_odr hidden noundef ptr @_ZNK10__gmp_exprIA1_12__mpz_structS1_E9get_mpz_tEv(ptr noundef nonnull align 8 dereferenceable(16) %0) #3 comdat align 2 {
  %2 = alloca ptr, align 8
  store ptr %0, ptr %2, align 8, !tbaa !12
  %3 = load ptr, ptr %2, align 8
  %4 = getelementptr inbounds nuw %class.__gmp_expr, ptr %3, i32 0, i32 0
  %5 = getelementptr inbounds [1 x %struct.__mpz_struct], ptr %4, i64 0, i64 0
  ret ptr %5
}

; Function Attrs: inlinehint mustprogress uwtable
define linkonce_odr hidden noundef zeroext i1 @_ZleIA1_12__mpz_structS1_EbRK10__gmp_exprIT_T0_Ei(ptr noundef nonnull align 8 dereferenceable(16) %0, i32 noundef %1) #1 comdat {
  %3 = alloca ptr, align 8
  %4 = alloca i32, align 4
  %5 = alloca ptr, align 8
  store ptr %0, ptr %3, align 8, !tbaa !12
  store i32 %1, ptr %4, align 4, !tbaa !10
  call void @llvm.lifetime.start.p0(i64 8, ptr %5) #16
  %6 = load ptr, ptr %3, align 8, !tbaa !12
  store ptr %6, ptr %5, align 8, !tbaa !12
  %7 = load ptr, ptr %5, align 8, !tbaa !12
  %8 = call noundef ptr @_ZNK10__gmp_exprIA1_12__mpz_structS1_E8__get_mpEv(ptr noundef nonnull align 8 dereferenceable(16) %7)
  %9 = load i32, ptr %4, align 4, !tbaa !10
  %10 = sext i32 %9 to i64
  %11 = call noundef zeroext i1 @_ZN20__gmp_binary_greater4evalIPK12__mpz_structlEEbT_T0_(ptr noundef %8, i64 noundef %10)
  %12 = xor i1 %11, true
  call void @llvm.lifetime.end.p0(i64 8, ptr %5) #16
  ret i1 %12
}

; Function Attrs: mustprogress uwtable
define hidden noundef i32 @_ZNK4cvc58internal7Integer6isPow2Ev(ptr noundef nonnull align 8 dereferenceable(16) %0) #0 align 2 {
  %2 = alloca i32, align 4
  %3 = alloca ptr, align 8
  store ptr %0, ptr %3, align 8, !tbaa !3
  %4 = load ptr, ptr %3, align 8
  %5 = getelementptr inbounds nuw %"class.cvc5::internal::Integer", ptr %4, i32 0, i32 0
  %6 = call noundef zeroext i1 @_ZleIA1_12__mpz_structS1_EbRK10__gmp_exprIT_T0_Ei(ptr noundef nonnull align 8 dereferenceable(16) %5, i32 noundef 0)
  br i1 %6, label %7, label %8

7:                                                ; preds = %1
  store i32 0, ptr %2, align 4
  br label %20

8:                                                ; preds = %1
  %9 = getelementptr inbounds nuw %"class.cvc5::internal::Integer", ptr %4, i32 0, i32 0
  %10 = call noundef ptr @_ZNK10__gmp_exprIA1_12__mpz_structS1_E9get_mpz_tEv(ptr noundef nonnull align 8 dereferenceable(16) %9)
  %11 = call i64 @__gmpz_popcount(ptr noundef %10) #19
  %12 = icmp eq i64 %11, 1
  br i1 %12, label %13, label %19

13:                                               ; preds = %8
  %14 = getelementptr inbounds nuw %"class.cvc5::internal::Integer", ptr %4, i32 0, i32 0
  %15 = call noundef ptr @_ZNK10__gmp_exprIA1_12__mpz_structS1_E9get_mpz_tEv(ptr noundef nonnull align 8 dereferenceable(16) %14)
  %16 = call i64 @__gmpz_scan1(ptr noundef %15, i64 noundef 0) #19
  %17 = add i64 %16, 1
  %18 = trunc i64 %17 to i32
  store i32 %18, ptr %2, align 4
  br label %20

19:                                               ; preds = %8
  store i32 0, ptr %2, align 4
  br label %20

20:                                               ; preds = %19, %13, %7
  %21 = load i32, ptr %2, align 4
  ret i32 %21
}