; Function Attrs: mustprogress nofree nounwind willreturn memory(read) uwtable
define hidden noundef i32 @_ZNK4cvc58internal7Integer6isPow2Ev(ptr noundef nonnull align 8 dereferenceable(16) %0) local_unnamed_addr #1 align 2 {
  %2 = getelementptr inbounds nuw i8, ptr %0, i64 4
  %3 = load i32, ptr %2, align 4, !tbaa !11
  %or.cond = icmp slt i32 %3, 1
  br i1 %or.cond, label %_ZleIA1_12__mpz_structS1_EbRK10__gmp_exprIT_T0_Ei.exit.thread, label %__gmpz_popcount.exit, !prof !26

__gmpz_popcount.exit:                             ; preds = %1
  %4 = zext nneg i32 %3 to i64
  %5 = getelementptr inbounds nuw i8, ptr %0, i64 8
  %6 = load ptr, ptr %5, align 8, !tbaa !17
  %7 = tail call i64 @__gmpn_popcount(ptr noundef %6, i64 noundef %4) #18
  %8 = icmp eq i64 %7, 1
  br i1 %8, label %9, label %_ZleIA1_12__mpz_structS1_EbRK10__gmp_exprIT_T0_Ei.exit.thread

9:                                                ; preds = %__gmpz_popcount.exit
  %10 = tail call i64 @__gmpz_scan1(ptr noundef nonnull %0, i64 noundef 0) #18
  %11 = trunc i64 %10 to i32
  %12 = add i32 %11, 1
  br label %_ZleIA1_12__mpz_structS1_EbRK10__gmp_exprIT_T0_Ei.exit.thread

_ZleIA1_12__mpz_structS1_EbRK10__gmp_exprIT_T0_Ei.exit.thread: ; preds = %1, %__gmpz_popcount.exit, %9
  %.0 = phi i32 [ %12, %9 ], [ 0, %__gmpz_popcount.exit ], [ 0, %1 ]
  ret i32 %.0
}